target datalayout = "e-m:e-p270:32:32-p271:32:32-p272:64:64-i64:64-i128:128-f80:128-n8:16:32:64-S128"
target triple = "x86_64-pc-linux-gnu"

%class.b3QuantizedBvh = type <{ ptr, [8 x i8], %class.b3Vector3, %class.b3Vector3, %class.b3Vector3, i32, i32, i8, [7 x i8], %class.b3AlignedObjectArray, %class.b3AlignedObjectArray, %class.b3AlignedObjectArray.0, %class.b3AlignedObjectArray.0, i32, [4 x i8], %class.b3AlignedObjectArray.2, i32, [4 x i8] }>
%class.b3Vector3 = type { %union.anon }
%union.anon = type { [4 x float] }
%class.b3AlignedObjectArray = type <{ [4 x i8], i32, i32, [4 x i8], ptr, i8, [7 x i8] }>
%class.b3AlignedObjectArray.0 = type <{ [4 x i8], i32, i32, [4 x i8], ptr, i8, [7 x i8] }>
%class.b3AlignedObjectArray.2 = type <{ [4 x i8], i32, i32, [4 x i8], ptr, i8, [7 x i8] }>

; Function Attrs: mustprogress uwtable
define linkonce_odr dso_local void @_ZN18b3AlignedAllocatorI18b3OptimizedBvhNodeLj16EE10deallocateEPS0_(ptr noundef nonnull align 1 dereferenceable(1) %0, ptr noundef %1) #0 comdat align 2 {
  %3 = alloca ptr, align 8
  %4 = alloca ptr, align 8
  store ptr %0, ptr %3, align 8, !tbaa !173
  store ptr %1, ptr %4, align 8, !tbaa !80
  %5 = load ptr, ptr %4, align 8, !tbaa !80
  call void @_Z21b3AlignedFreeInternalPv(ptr noundef %5)
  ret void
}

; Function Attrs: mustprogress uwtable
define linkonce_odr dso_local void @_ZN18b3AlignedAllocatorI18b3QuantizedBvhNodeLj16EE10deallocateEPS0_(ptr noundef nonnull align 1 dereferenceable(1) %0, ptr noundef %1) #0 comdat align 2 {
  %3 = alloca ptr, align 8
  %4 = alloca ptr, align 8
  store ptr %0, ptr %3, align 8, !tbaa !175
  store ptr %1, ptr %4, align 8, !tbaa !51
  %5 = load ptr, ptr %4, align 8, !tbaa !51
  call void @_Z21b3AlignedFreeInternalPv(ptr noundef %5)
  ret void
}

; Function Attrs: inlinehint mustprogress uwtable
define linkonce_odr dso_local void @_ZN20b3AlignedObjectArrayI18b3OptimizedBvhNodeE10deallocateEv(ptr noundef nonnull align 8 dereferenceable(25) %0) #4 comdat align 2 {
  %2 = alloca ptr, align 8
  store ptr %0, ptr %2, align 8, !tbaa !31
  %3 = load ptr, ptr %2, align 8
  %4 = getelementptr inbounds nuw %class.b3AlignedObjectArray, ptr %3, i32 0, i32 4
  %5 = load ptr, ptr %4, align 8, !tbaa !84
  %6 = icmp ne ptr %5, null
  br i1 %6, label %7, label %16

7:                                                ; preds = %1
  %8 = getelementptr inbounds nuw %class.b3AlignedObjectArray, ptr %3, i32 0, i32 5
  %9 = load i8, ptr %8, align 8, !tbaa !102, !range !43, !noundef !44
  %10 = trunc i8 %9 to i1
  br i1 %10, label %11, label %14

11:                                               ; preds = %7
  %12 = getelementptr inbounds nuw %class.b3AlignedObjectArray, ptr %3, i32 0, i32 4
  %13 = load ptr, ptr %12, align 8, !tbaa !84
  call void @_ZN18b3AlignedAllocatorI18b3OptimizedBvhNodeLj16EE10deallocateEPS0_(ptr noundef nonnull align 1 dereferenceable(1) %3, ptr noundef %13)
  br label %14

14:                                               ; preds = %11, %7
  %15 = getelementptr inbounds nuw %class.b3AlignedObjectArray, ptr %3, i32 0, i32 4
  store ptr null, ptr %15, align 8, !tbaa !84
  br label %16

16:                                               ; preds = %14, %1
  ret void
}

; Function Attrs: inlinehint mustprogress nounwind uwtable
define linkonce_odr dso_local void @_ZN20b3AlignedObjectArrayI18b3OptimizedBvhNodeE7destroyEii(ptr noundef nonnull align 8 dereferenceable(25) %0, i32 noundef %1, i32 noundef %2) #1 comdat align 2 {
  %4 = alloca ptr, align 8
  %5 = alloca i32, align 4
  %6 = alloca i32, align 4
  %7 = alloca i32, align 4
  store ptr %0, ptr %4, align 8, !tbaa !31
  store i32 %1, ptr %5, align 4, !tbaa !42
  store i32 %2, ptr %6, align 4, !tbaa !42
  call void @llvm.lifetime.start.p0(i64 4, ptr %7) #14
  %8 = load i32, ptr %5, align 4, !tbaa !42
  store i32 %8, ptr %7, align 4, !tbaa !42
  br label %9

9:                                                ; preds = %14, %3
  %10 = load i32, ptr %7, align 4, !tbaa !42
  %11 = load i32, ptr %6, align 4, !tbaa !42
  %12 = icmp slt i32 %10, %11
  br i1 %12, label %13, label %17

13:                                               ; preds = %9
  br label %14

14:                                               ; preds = %13
  %15 = load i32, ptr %7, align 4, !tbaa !42
  %16 = add nsw i32 %15, 1
  store i32 %16, ptr %7, align 4, !tbaa !42
  br label %9, !llvm.loop !187

17:                                               ; preds = %9
  call void @llvm.lifetime.end.p0(i64 4, ptr %7) #14
  ret void
}

; Function Attrs: inlinehint mustprogress nounwind uwtable
define linkonce_odr dso_local noundef i32 @_ZNK20b3AlignedObjectArrayI18b3OptimizedBvhNodeE4sizeEv(ptr noundef nonnull align 8 dereferenceable(25) %0) #1 comdat align 2 {
  %2 = alloca ptr, align 8
  store ptr %0, ptr %2, align 8, !tbaa !31
  %3 = load ptr, ptr %2, align 8
  %4 = getelementptr inbounds nuw %class.b3AlignedObjectArray, ptr %3, i32 0, i32 1
  %5 = load i32, ptr %4, align 4, !tbaa !103
  ret i32 %5
}

; Function Attrs: inlinehint mustprogress uwtable
define linkonce_odr dso_local void @_ZN20b3AlignedObjectArrayI18b3QuantizedBvhNodeE10deallocateEv(ptr noundef nonnull align 8 dereferenceable(25) %0) #4 comdat align 2 {
  %2 = alloca ptr, align 8
  store ptr %0, ptr %2, align 8, !tbaa !33
  %3 = load ptr, ptr %2, align 8
  %4 = getelementptr inbounds nuw %class.b3AlignedObjectArray.0, ptr %3, i32 0, i32 4
  %5 = load ptr, ptr %4, align 8, !tbaa !54
  %6 = icmp ne ptr %5, null
  br i1 %6, label %7, label %16

7:                                                ; preds = %1
  %8 = getelementptr inbounds nuw %class.b3AlignedObjectArray.0, ptr %3, i32 0, i32 5
  %9 = load i8, ptr %8, align 8, !tbaa !100, !range !43, !noundef !44
  %10 = trunc i8 %9 to i1
  br i1 %10, label %11, label %14

11:                                               ; preds = %7
  %12 = getelementptr inbounds nuw %class.b3AlignedObjectArray.0, ptr %3, i32 0, i32 4
  %13 = load ptr, ptr %12, align 8, !tbaa !54
  call void @_ZN18b3AlignedAllocatorI18b3QuantizedBvhNodeLj16EE10deallocateEPS0_(ptr noundef nonnull align 1 dereferenceable(1) %3, ptr noundef %13)
  br label %14

14:                                               ; preds = %11, %7
  %15 = getelementptr inbounds nuw %class.b3AlignedObjectArray.0, ptr %3, i32 0, i32 4
  store ptr null, ptr %15, align 8, !tbaa !54
  br label %16

16:                                               ; preds = %14, %1
  ret void
}

; Function Attrs: inlinehint mustprogress nounwind uwtable
define linkonce_odr dso_local void @_ZN20b3AlignedObjectArrayI18b3QuantizedBvhNodeE7destroyEii(ptr noundef nonnull align 8 dereferenceable(25) %0, i32 noundef %1, i32 noundef %2) #1 comdat align 2 {
  %4 = alloca ptr, align 8
  %5 = alloca i32, align 4
  %6 = alloca i32, align 4
  %7 = alloca i32, align 4
  store ptr %0, ptr %4, align 8, !tbaa !33
  store i32 %1, ptr %5, align 4, !tbaa !42
  store i32 %2, ptr %6, align 4, !tbaa !42
  call void @llvm.lifetime.start.p0(i64 4, ptr %7) #14
  %8 = load i32, ptr %5, align 4, !tbaa !42
  store i32 %8, ptr %7, align 4, !tbaa !42
  br label %9

9:                                                ; preds = %14, %3
  %10 = load i32, ptr %7, align 4, !tbaa !42
  %11 = load i32, ptr %6, align 4, !tbaa !42
  %12 = icmp slt i32 %10, %11
  br i1 %12, label %13, label %17

13:                                               ; preds = %9
  br label %14

14:                                               ; preds = %13
  %15 = load i32, ptr %7, align 4, !tbaa !42
  %16 = add nsw i32 %15, 1
  store i32 %16, ptr %7, align 4, !tbaa !42
  br label %9, !llvm.loop !181

17:                                               ; preds = %9
  call void @llvm.lifetime.end.p0(i64 4, ptr %7) #14
  ret void
}

; Function Attrs: inlinehint mustprogress nounwind uwtable
define linkonce_odr dso_local noundef i32 @_ZNK20b3AlignedObjectArrayI18b3QuantizedBvhNodeE4sizeEv(ptr noundef nonnull align 8 dereferenceable(25) %0) #1 comdat align 2 {
  %2 = alloca ptr, align 8
  store ptr %0, ptr %2, align 8, !tbaa !33
  %3 = load ptr, ptr %2, align 8
  %4 = getelementptr inbounds nuw %class.b3AlignedObjectArray.0, ptr %3, i32 0, i32 1
  %5 = load i32, ptr %4, align 4, !tbaa !50
  ret i32 %5
}

; Function Attrs: inlinehint mustprogress uwtable
define linkonce_odr dso_local void @_ZN20b3AlignedObjectArrayI18b3OptimizedBvhNodeE5clearEv(ptr noundef nonnull align 8 dereferenceable(25) %0) #4 comdat align 2 {
  %2 = alloca ptr, align 8
  store ptr %0, ptr %2, align 8, !tbaa !31
  %3 = load ptr, ptr %2, align 8
  %4 = call noundef i32 @_ZNK20b3AlignedObjectArrayI18b3OptimizedBvhNodeE4sizeEv(ptr noundef nonnull align 8 dereferenceable(25) %3)
  call void @_ZN20b3AlignedObjectArrayI18b3OptimizedBvhNodeE7destroyEii(ptr noundef nonnull align 8 dereferenceable(25) %3, i32 noundef 0, i32 noundef %4)
  call void @_ZN20b3AlignedObjectArrayI18b3OptimizedBvhNodeE10deallocateEv(ptr noundef nonnull align 8 dereferenceable(25) %3)
  call void @_ZN20b3AlignedObjectArrayI18b3OptimizedBvhNodeE4initEv(ptr noundef nonnull align 8 dereferenceable(25) %3)
  ret void
}

; Function Attrs: noinline noreturn nounwind uwtable
define linkonce_odr hidden void @__clang_call_terminate(ptr noundef %0) #11 comdat {
  %2 = call ptr @__cxa_begin_catch(ptr %0) #14
  call void @_ZSt9terminatev() #15
  unreachable
}

; Function Attrs: inlinehint mustprogress uwtable
define linkonce_odr dso_local void @_ZN20b3AlignedObjectArrayI18b3QuantizedBvhNodeE5clearEv(ptr noundef nonnull align 8 dereferenceable(25) %0) #4 comdat align 2 {
  %2 = alloca ptr, align 8
  store ptr %0, ptr %2, align 8, !tbaa !33
  %3 = load ptr, ptr %2, align 8
  %4 = call noundef i32 @_ZNK20b3AlignedObjectArrayI18b3QuantizedBvhNodeE4sizeEv(ptr noundef nonnull align 8 dereferenceable(25) %3)
  call void @_ZN20b3AlignedObjectArrayI18b3QuantizedBvhNodeE7destroyEii(ptr noundef nonnull align 8 dereferenceable(25) %3, i32 noundef 0, i32 noundef %4)
  call void @_ZN20b3AlignedObjectArrayI18b3QuantizedBvhNodeE10deallocateEv(ptr noundef nonnull align 8 dereferenceable(25) %3)
  call void @_ZN20b3AlignedObjectArrayI18b3QuantizedBvhNodeE4initEv(ptr noundef nonnull align 8 dereferenceable(25) %3)
  ret void
}

; Function Attrs: inlinehint mustprogress nounwind uwtable
define linkonce_odr dso_local void @_ZN20b3AlignedObjectArrayI16b3BvhSubtreeInfoE4initEv(ptr noundef nonnull align 8 dereferenceable(25) %0) #1 comdat align 2 {
  %2 = alloca ptr, align 8
  store ptr %0, ptr %2, align 8, !tbaa !35
  %3 = load ptr, ptr %2, align 8
  %4 = getelementptr inbounds nuw %class.b3AlignedObjectArray.2, ptr %3, i32 0, i32 5
  store i8 1, ptr %4, align 8, !tbaa !105
  %5 = getelementptr inbounds nuw %class.b3AlignedObjectArray.2, ptr %3, i32 0, i32 4
  store ptr null, ptr %5, align 8, !tbaa !58
  %6 = getelementptr inbounds nuw %class.b3AlignedObjectArray.2, ptr %3, i32 0, i32 1
  store i32 0, ptr %6, align 4, !tbaa !57
  %7 = getelementptr inbounds nuw %class.b3AlignedObjectArray.2, ptr %3, i32 0, i32 2
  store i32 0, ptr %7, align 8, !tbaa !106
  ret void
}

; Function Attrs: mustprogress nounwind uwtable
define linkonce_odr dso_local void @_ZN18b3AlignedAllocatorI16b3BvhSubtreeInfoLj16EEC2Ev(ptr noundef nonnull align 1 dereferenceable(1) %0) unnamed_addr #3 comdat align 2 {
  %2 = alloca ptr, align 8
  store ptr %0, ptr %2, align 8, !tbaa !177
  ret void
}

; Function Attrs: inlinehint mustprogress nounwind uwtable
define linkonce_odr dso_local void @_ZN20b3AlignedObjectArrayI18b3QuantizedBvhNodeE4initEv(ptr noundef nonnull align 8 dereferenceable(25) %0) #1 comdat align 2 {
  %2 = alloca ptr, align 8
  store ptr %0, ptr %2, align 8, !tbaa !33
  %3 = load ptr, ptr %2, align 8
  %4 = getelementptr inbounds nuw %class.b3AlignedObjectArray.0, ptr %3, i32 0, i32 5
  store i8 1, ptr %4, align 8, !tbaa !100
  %5 = getelementptr inbounds nuw %class.b3AlignedObjectArray.0, ptr %3, i32 0, i32 4
  store ptr null, ptr %5, align 8, !tbaa !54
  %6 = getelementptr inbounds nuw %class.b3AlignedObjectArray.0, ptr %3, i32 0, i32 1
  store i32 0, ptr %6, align 4, !tbaa !50
  %7 = getelementptr inbounds nuw %class.b3AlignedObjectArray.0, ptr %3, i32 0, i32 2
  store i32 0, ptr %7, align 8, !tbaa !101
  ret void
}

; Function Attrs: mustprogress nounwind uwtable
define linkonce_odr dso_local void @_ZN18b3AlignedAllocatorI18b3QuantizedBvhNodeLj16EEC2Ev(ptr noundef nonnull align 1 dereferenceable(1) %0) unnamed_addr #3 comdat align 2 {
  %2 = alloca ptr, align 8
  store ptr %0, ptr %2, align 8, !tbaa !175
  ret void
}

; Function Attrs: inlinehint mustprogress nounwind uwtable
define linkonce_odr dso_local void @_ZN20b3AlignedObjectArrayI18b3OptimizedBvhNodeE4initEv(ptr noundef nonnull align 8 dereferenceable(25) %0) #1 comdat align 2 {
  %2 = alloca ptr, align 8
  store ptr %0, ptr %2, align 8, !tbaa !31
  %3 = load ptr, ptr %2, align 8
  %4 = getelementptr inbounds nuw %class.b3AlignedObjectArray, ptr %3, i32 0, i32 5
  store i8 1, ptr %4, align 8, !tbaa !102
  %5 = getelementptr inbounds nuw %class.b3AlignedObjectArray, ptr %3, i32 0, i32 4
  store ptr null, ptr %5, align 8, !tbaa !84
  %6 = getelementptr inbounds nuw %class.b3AlignedObjectArray, ptr %3, i32 0, i32 1
  store i32 0, ptr %6, align 4, !tbaa !103
  %7 = getelementptr inbounds nuw %class.b3AlignedObjectArray, ptr %3, i32 0, i32 2
  store i32 0, ptr %7, align 8, !tbaa !104
  ret void
}

; Function Attrs: mustprogress nounwind uwtable
define linkonce_odr dso_local void @_ZN18b3AlignedAllocatorI18b3OptimizedBvhNodeLj16EEC2Ev(ptr noundef nonnull align 1 dereferenceable(1) %0) unnamed_addr #3 comdat align 2 {
  %2 = alloca ptr, align 8
  store ptr %0, ptr %2, align 8, !tbaa !173
  ret void
}

; Function Attrs: mustprogress nounwind uwtable
define linkonce_odr dso_local void @_ZN20b3AlignedObjectArrayI18b3OptimizedBvhNodeED2Ev(ptr noundef nonnull align 8 dereferenceable(25) %0) unnamed_addr #3 comdat align 2 personality ptr @__gxx_personality_v0 {
  %2 = alloca ptr, align 8
  store ptr %0, ptr %2, align 8, !tbaa !31
  %3 = load ptr, ptr %2, align 8
  invoke void @_ZN20b3AlignedObjectArrayI18b3OptimizedBvhNodeE5clearEv(ptr noundef nonnull align 8 dereferenceable(25) %3)
          to label %4 unwind label %5

4:                                                ; preds = %1
  ret void

5:                                                ; preds = %1
  %6 = landingpad { ptr, i32 }
          catch ptr null
  %7 = extractvalue { ptr, i32 } %6, 0
  call void @__clang_call_terminate(ptr %7) #15
  unreachable
}

; Function Attrs: mustprogress nounwind uwtable
define linkonce_odr dso_local void @_ZN20b3AlignedObjectArrayI18b3QuantizedBvhNodeED2Ev(ptr noundef nonnull align 8 dereferenceable(25) %0) unnamed_addr #3 comdat align 2 personality ptr @__gxx_personality_v0 {
  %2 = alloca ptr, align 8
  store ptr %0, ptr %2, align 8, !tbaa !33
  %3 = load ptr, ptr %2, align 8
  invoke void @_ZN20b3AlignedObjectArrayI18b3QuantizedBvhNodeE5clearEv(ptr noundef nonnull align 8 dereferenceable(25) %3)
          to label %4 unwind label %5

4:                                                ; preds = %1
  ret void

5:                                                ; preds = %1
  %6 = landingpad { ptr, i32 }
          catch ptr null
  %7 = extractvalue { ptr, i32 } %6, 0
  call void @__clang_call_terminate(ptr %7) #15
  unreachable
}

; Function Attrs: mustprogress uwtable
define linkonce_odr dso_local void @_ZN20b3AlignedObjectArrayI16b3BvhSubtreeInfoEC2Ev(ptr noundef nonnull align 8 dereferenceable(25) %0) unnamed_addr #0 comdat align 2 {
  %2 = alloca ptr, align 8
  store ptr %0, ptr %2, align 8, !tbaa !35
  %3 = load ptr, ptr %2, align 8
  call void @_ZN18b3AlignedAllocatorI16b3BvhSubtreeInfoLj16EEC2Ev(ptr noundef nonnull align 1 dereferenceable(1) %3)
  call void @_ZN20b3AlignedObjectArrayI16b3BvhSubtreeInfoE4initEv(ptr noundef nonnull align 8 dereferenceable(25) %3)
  ret void
}

; Function Attrs: mustprogress uwtable
define linkonce_odr dso_local void @_ZN20b3AlignedObjectArrayI18b3QuantizedBvhNodeEC2Ev(ptr noundef nonnull align 8 dereferenceable(25) %0) unnamed_addr #0 comdat align 2 {
  %2 = alloca ptr, align 8
  store ptr %0, ptr %2, align 8, !tbaa !33
  %3 = load ptr, ptr %2, align 8
  call void @_ZN18b3AlignedAllocatorI18b3QuantizedBvhNodeLj16EEC2Ev(ptr noundef nonnull align 1 dereferenceable(1) %3)
  call void @_ZN20b3AlignedObjectArrayI18b3QuantizedBvhNodeE4initEv(ptr noundef nonnull align 8 dereferenceable(25) %3)
  ret void
}

; Function Attrs: mustprogress uwtable
define linkonce_odr dso_local void @_ZN20b3AlignedObjectArrayI18b3OptimizedBvhNodeEC2Ev(ptr noundef nonnull align 8 dereferenceable(25) %0) unnamed_addr #0 comdat align 2 {
  %2 = alloca ptr, align 8
  store ptr %0, ptr %2, align 8, !tbaa !31
  %3 = load ptr, ptr %2, align 8
  call void @_ZN18b3AlignedAllocatorI18b3OptimizedBvhNodeLj16EEC2Ev(ptr noundef nonnull align 1 dereferenceable(1) %3)
  call void @_ZN20b3AlignedObjectArrayI18b3OptimizedBvhNodeE4initEv(ptr noundef nonnull align 8 dereferenceable(25) %3)
  ret void
}

; Function Attrs: mustprogress uwtable
define dso_local void @_ZN14b3QuantizedBvhC2ERS_b(ptr noundef nonnull align 16 dereferenceable(252) %0, ptr noundef nonnull align 16 dereferenceable(252) %1, i1 noundef zeroext %2) unnamed_addr #0 align 2 personality ptr @__gxx_personality_v0 {
  %4 = alloca ptr, align 8
  %5 = alloca ptr, align 8
  %6 = alloca i8, align 1
  %7 = alloca ptr, align 8
  %8 = alloca i32, align 4
  store ptr %0, ptr %4, align 8, !tbaa !4
  store ptr %1, ptr %5, align 8, !tbaa !4
  %9 = zext i1 %2 to i8
  store i8 %9, ptr %6, align 1, !tbaa !70
  %10 = load ptr, ptr %4, align 8
  store ptr getelementptr inbounds inrange(-16, 56) ({ [9 x ptr] }, ptr @_ZTV14b3QuantizedBvh, i32 0, i32 0, i32 2), ptr %10, align 16, !tbaa !9
  %11 = getelementptr inbounds nuw %class.b3QuantizedBvh, ptr %10, i32 0, i32 2
  %12 = load ptr, ptr %5, align 8, !tbaa !4
  %13 = getelementptr inbounds nuw %class.b3QuantizedBvh, ptr %12, i32 0, i32 2
  call void @llvm.memcpy.p0.p0.i64(ptr align 16 %11, ptr align 16 %13, i64 16, i1 false), !tbaa.struct !63
  %14 = getelementptr inbounds nuw %class.b3QuantizedBvh, ptr %10, i32 0, i32 3
  %15 = load ptr, ptr %5, align 8, !tbaa !4
  %16 = getelementptr inbounds nuw %class.b3QuantizedBvh, ptr %15, i32 0, i32 3
  call void @llvm.memcpy.p0.p0.i64(ptr align 16 %14, ptr align 16 %16, i64 16, i1 false), !tbaa.struct !63
  %17 = getelementptr inbounds nuw %class.b3QuantizedBvh, ptr %10, i32 0, i32 4
  %18 = load ptr, ptr %5, align 8, !tbaa !4
  %19 = getelementptr inbounds nuw %class.b3QuantizedBvh, ptr %18, i32 0, i32 4
  call void @llvm.memcpy.p0.p0.i64(ptr align 16 %17, ptr align 16 %19, i64 16, i1 false), !tbaa.struct !63
  %20 = getelementptr inbounds nuw %class.b3QuantizedBvh, ptr %10, i32 0, i32 5
  store i32 300, ptr %20, align 16, !tbaa !11
  %21 = getelementptr inbounds nuw %class.b3QuantizedBvh, ptr %10, i32 0, i32 9
  call void @_ZN20b3AlignedObjectArrayI18b3OptimizedBvhNodeEC2Ev(ptr noundef nonnull align 8 dereferenceable(25) %21)
  %22 = getelementptr inbounds nuw %class.b3QuantizedBvh, ptr %10, i32 0, i32 10
  invoke void @_ZN20b3AlignedObjectArrayI18b3OptimizedBvhNodeEC2Ev(ptr noundef nonnull align 8 dereferenceable(25) %22)
          to label %23 unwind label %30

23:                                               ; preds = %3
  %24 = getelementptr inbounds nuw %class.b3QuantizedBvh, ptr %10, i32 0, i32 11
  invoke void @_ZN20b3AlignedObjectArrayI18b3QuantizedBvhNodeEC2Ev(ptr noundef nonnull align 8 dereferenceable(25) %24)
          to label %25 unwind label %34

25:                                               ; preds = %23
  %26 = getelementptr inbounds nuw %class.b3QuantizedBvh, ptr %10, i32 0, i32 12
  invoke void @_ZN20b3AlignedObjectArrayI18b3QuantizedBvhNodeEC2Ev(ptr noundef nonnull align 8 dereferenceable(25) %26)
          to label %27 unwind label %38

27:                                               ; preds = %25
  %28 = getelementptr inbounds nuw %class.b3QuantizedBvh, ptr %10, i32 0, i32 15
  invoke void @_ZN20b3AlignedObjectArrayI16b3BvhSubtreeInfoEC2Ev(ptr noundef nonnull align 8 dereferenceable(25) %28)
          to label %29 unwind label %42

29:                                               ; preds = %27
  ret void

30:                                               ; preds = %3
  %31 = landingpad { ptr, i32 }
          cleanup
  %32 = extractvalue { ptr, i32 } %31, 0
  store ptr %32, ptr %7, align 8
  %33 = extractvalue { ptr, i32 } %31, 1
  store i32 %33, ptr %8, align 4
  br label %48

34:                                               ; preds = %23
  %35 = landingpad { ptr, i32 }
          cleanup
  %36 = extractvalue { ptr, i32 } %35, 0
  store ptr %36, ptr %7, align 8
  %37 = extractvalue { ptr, i32 } %35, 1
  store i32 %37, ptr %8, align 4
  br label %47

38:                                               ; preds = %25
  %39 = landingpad { ptr, i32 }
          cleanup
  %40 = extractvalue { ptr, i32 } %39, 0
  store ptr %40, ptr %7, align 8
  %41 = extractvalue { ptr, i32 } %39, 1
  store i32 %41, ptr %8, align 4
  br label %46

42:                                               ; preds = %27
  %43 = landingpad { ptr, i32 }
          cleanup
  %44 = extractvalue { ptr, i32 } %43, 0
  store ptr %44, ptr %7, align 8
  %45 = extractvalue { ptr, i32 } %43, 1
  store i32 %45, ptr %8, align 4
  call void @_ZN20b3AlignedObjectArrayI18b3QuantizedBvhNodeED2Ev(ptr noundef nonnull align 8 dereferenceable(25) %26) #14
  br label %46

46:                                               ; preds = %42, %38
  call void @_ZN20b3AlignedObjectArrayI18b3QuantizedBvhNodeED2Ev(ptr noundef nonnull align 8 dereferenceable(25) %24) #14
  br label %47

47:                                               ; preds = %46, %34
  call void @_ZN20b3AlignedObjectArrayI18b3OptimizedBvhNodeED2Ev(ptr noundef nonnull align 8 dereferenceable(25) %22) #14
  br label %48

48:                                               ; preds = %47, %30
  call void @_ZN20b3AlignedObjectArrayI18b3OptimizedBvhNodeED2Ev(ptr noundef nonnull align 8 dereferenceable(25) %21) #14
  br label %49

49:                                               ; preds = %48
  %50 = load ptr, ptr %7, align 8
  %51 = load i32, ptr %8, align 4
  %52 = insertvalue { ptr, i32 } poison, ptr %50, 0
  %53 = insertvalue { ptr, i32 } %52, i32 %51, 1
  resume { ptr, i32 } %53
}