; Function Attrs: mustprogress nofree norecurse nosync nounwind willreturn memory(argmem: readwrite) uwtable
define dso_local void @_ZN14b3QuantizedBvhC2ERS_b(ptr noundef nonnull writeonly align 16 captures(none) dereferenceable(252) initializes((0, 8), (16, 68), (84, 92), (96, 105), (116, 124), (128, 137), (148, 156), (160, 169), (180, 188), (192, 201), (220, 228), (232, 241)) %0, ptr noundef nonnull readonly align 16 captures(none) dereferenceable(252) %1, i1 zeroext %2) unnamed_addr #14 align 2 personality ptr @__gxx_personality_v0 {
  store ptr getelementptr inbounds nuw inrange(-16, 56) (i8, ptr @_ZTV14b3QuantizedBvh, i64 16), ptr %0, align 16, !tbaa !4
  %4 = getelementptr inbounds nuw i8, ptr %0, i64 16
  %5 = getelementptr inbounds nuw i8, ptr %1, i64 16
  tail call void @llvm.memcpy.p0.p0.i64(ptr noundef nonnull align 16 dereferenceable(16) %4, ptr noundef nonnull align 16 dereferenceable(16) %5, i64 16, i1 false), !tbaa.struct !55
  %6 = getelementptr inbounds nuw i8, ptr %0, i64 32
  %7 = getelementptr inbounds nuw i8, ptr %1, i64 32
  tail call void @llvm.memcpy.p0.p0.i64(ptr noundef nonnull align 16 dereferenceable(16) %6, ptr noundef nonnull align 16 dereferenceable(16) %7, i64 16, i1 false), !tbaa.struct !55
  %8 = getelementptr inbounds nuw i8, ptr %0, i64 48
  %9 = getelementptr inbounds nuw i8, ptr %1, i64 48
  tail call void @llvm.memcpy.p0.p0.i64(ptr noundef nonnull align 16 dereferenceable(16) %8, ptr noundef nonnull align 16 dereferenceable(16) %9, i64 16, i1 false), !tbaa.struct !55
  %10 = getelementptr inbounds nuw i8, ptr %0, i64 64
  store i32 300, ptr %10, align 16, !tbaa !7
  %11 = getelementptr inbounds nuw i8, ptr %0, i64 104
  store i8 1, ptr %11, align 8, !tbaa !25
  %12 = getelementptr inbounds nuw i8, ptr %0, i64 96
  store ptr null, ptr %12, align 16, !tbaa !26
  %13 = getelementptr inbounds nuw i8, ptr %0, i64 84
  store i32 0, ptr %13, align 4, !tbaa !27
  %14 = getelementptr inbounds nuw i8, ptr %0, i64 88
  store i32 0, ptr %14, align 8, !tbaa !28
  %15 = getelementptr inbounds nuw i8, ptr %0, i64 136
  store i8 1, ptr %15, align 8, !tbaa !25
  %16 = getelementptr inbounds nuw i8, ptr %0, i64 128
  store ptr null, ptr %16, align 16, !tbaa !26
  %17 = getelementptr inbounds nuw i8, ptr %0, i64 116
  store i32 0, ptr %17, align 4, !tbaa !27
  %18 = getelementptr inbounds nuw i8, ptr %0, i64 120
  store i32 0, ptr %18, align 8, !tbaa !28
  %19 = getelementptr inbounds nuw i8, ptr %0, i64 168
  store i8 1, ptr %19, align 8, !tbaa !29
  %20 = getelementptr inbounds nuw i8, ptr %0, i64 160
  store ptr null, ptr %20, align 16, !tbaa !30
  %21 = getelementptr inbounds nuw i8, ptr %0, i64 148
  store i32 0, ptr %21, align 4, !tbaa !31
  %22 = getelementptr inbounds nuw i8, ptr %0, i64 152
  store i32 0, ptr %22, align 8, !tbaa !32
  %23 = getelementptr inbounds nuw i8, ptr %0, i64 200
  store i8 1, ptr %23, align 8, !tbaa !29
  %24 = getelementptr inbounds nuw i8, ptr %0, i64 192
  store ptr null, ptr %24, align 16, !tbaa !30
  %25 = getelementptr inbounds nuw i8, ptr %0, i64 180
  store i32 0, ptr %25, align 4, !tbaa !31
  %26 = getelementptr inbounds nuw i8, ptr %0, i64 184
  store i32 0, ptr %26, align 8, !tbaa !32
  %27 = getelementptr inbounds nuw i8, ptr %0, i64 240
  store i8 1, ptr %27, align 16, !tbaa !34
  %28 = getelementptr inbounds nuw i8, ptr %0, i64 232
  store ptr null, ptr %28, align 8, !tbaa !35
  %29 = getelementptr inbounds nuw i8, ptr %0, i64 220
  store i32 0, ptr %29, align 4, !tbaa !36
  %30 = getelementptr inbounds nuw i8, ptr %0, i64 224
  store i32 0, ptr %30, align 16, !tbaa !37
  ret void
}